target datalayout = "e-m:e-p270:32:32-p271:32:32-p272:64:64-i64:64-i128:128-f80:128-n8:16:32:64-S128"
target triple = "x86_64-pc-linux-gnu"

%struct.strvec = type { ptr, i64, i64 }
%struct.strbuf = type { i64, i64, ptr }
%struct.am_state = type { ptr, i32, i32, ptr, ptr, ptr, ptr, i64, %struct.object_id, i32, i32, i32, i32, i32, i32, i32, i32, i32, i32, i32, i32, %struct.strvec, ptr, i32, i32, i32, ptr, i32 }
%struct.object_id = type { [32 x i8], i32 }

@strbuf_slopbuf = external global [0 x i8], align 1
@.str.122 = private unnamed_addr constant [11 x i8] c"./strbuf.h\00", align 1
@.str.123 = private unnamed_addr constant [30 x i8] c"strbuf_setlen() beyond buffer\00", align 1
@msgnum.sb = internal global %struct.strbuf { i64 0, i64 0, ptr @strbuf_slopbuf }, align 8
@.str.199 = private unnamed_addr constant [5 x i8] c"%0*d\00", align 1

; Function Attrs: inlinehint nounwind uwtable
define internal void @strbuf_setlen(ptr noundef %0, i64 noundef %1) #5 {
  %3 = alloca ptr, align 8
  %4 = alloca i64, align 8
  store ptr %0, ptr %3, align 8, !tbaa !98
  store i64 %1, ptr %4, align 8, !tbaa !103
  %5 = load i64, ptr %4, align 8, !tbaa !103
  %6 = load ptr, ptr %3, align 8, !tbaa !98
  %7 = getelementptr inbounds nuw %struct.strbuf, ptr %6, i32 0, i32 0
  %8 = load i64, ptr %7, align 8, !tbaa !104
  %9 = icmp ne i64 %8, 0
  br i1 %9, label %10, label %15

10:                                               ; preds = %2
  %11 = load ptr, ptr %3, align 8, !tbaa !98
  %12 = getelementptr inbounds nuw %struct.strbuf, ptr %11, i32 0, i32 0
  %13 = load i64, ptr %12, align 8, !tbaa !104
  %14 = sub i64 %13, 1
  br label %16

15:                                               ; preds = %2
  br label %16

16:                                               ; preds = %15, %10
  %17 = phi i64 [ %14, %10 ], [ 0, %15 ]
  %18 = icmp ugt i64 %5, %17
  br i1 %18, label %19, label %20

19:                                               ; preds = %16
  call void (ptr, i32, ptr, ...) @BUG_fl(ptr noundef @.str.122, i32 noundef 167, ptr noundef @.str.123) #15
  unreachable

20:                                               ; preds = %16
  %21 = load i64, ptr %4, align 8, !tbaa !103
  %22 = load ptr, ptr %3, align 8, !tbaa !98
  %23 = getelementptr inbounds nuw %struct.strbuf, ptr %22, i32 0, i32 1
  store i64 %21, ptr %23, align 8, !tbaa !97
  %24 = load ptr, ptr %3, align 8, !tbaa !98
  %25 = getelementptr inbounds nuw %struct.strbuf, ptr %24, i32 0, i32 2
  %26 = load ptr, ptr %25, align 8, !tbaa !57
  %27 = icmp ne ptr %26, @strbuf_slopbuf
  br i1 %27, label %28, label %34

28:                                               ; preds = %20
  %29 = load ptr, ptr %3, align 8, !tbaa !98
  %30 = getelementptr inbounds nuw %struct.strbuf, ptr %29, i32 0, i32 2
  %31 = load ptr, ptr %30, align 8, !tbaa !57
  %32 = load i64, ptr %4, align 8, !tbaa !103
  %33 = getelementptr inbounds nuw i8, ptr %31, i64 %32
  store i8 0, ptr %33, align 1, !tbaa !84
  br label %35

34:                                               ; preds = %20
  br label %35

35:                                               ; preds = %34, %28
  ret void
}

; Function Attrs: nounwind uwtable
define internal ptr @msgnum(ptr noundef %0) #0 {
  %2 = alloca ptr, align 8
  store ptr %0, ptr %2, align 8, !tbaa !47
  call void @strbuf_setlen(ptr noundef @msgnum.sb, i64 noundef 0)
  %3 = load ptr, ptr %2, align 8, !tbaa !47
  %4 = getelementptr inbounds nuw %struct.am_state, ptr %3, i32 0, i32 9
  %5 = load i32, ptr %4, align 4, !tbaa !49
  %6 = load ptr, ptr %2, align 8, !tbaa !47
  %7 = getelementptr inbounds nuw %struct.am_state, ptr %6, i32 0, i32 1
  %8 = load i32, ptr %7, align 8, !tbaa !59
  call void (ptr, ptr, ...) @strbuf_addf(ptr noundef @msgnum.sb, ptr noundef @.str.199, i32 noundef %5, i32 noundef %8)
  %9 = load ptr, ptr getelementptr inbounds nuw (%struct.strbuf, ptr @msgnum.sb, i32 0, i32 2), align 8, !tbaa !57
  ret ptr %9
}