; Function Attrs: nounwind uwtable
define internal fastcc ptr @msgnum(ptr noundef nonnull readonly captures(none) %0) unnamed_addr #0 {
  store i64 0, ptr getelementptr inbounds nuw (i8, ptr @msgnum.sb, i64 8), align 8, !tbaa !53
  %2 = load ptr, ptr getelementptr inbounds nuw (i8, ptr @msgnum.sb, i64 16), align 8, !tbaa !51
  %.not9.i = icmp eq ptr %2, @strbuf_slopbuf
  br i1 %.not9.i, label %strbuf_setlen.exit, label %3

3:                                                ; preds = %1
  store i8 0, ptr %2, align 1, !tbaa !47
  br label %strbuf_setlen.exit

strbuf_setlen.exit:                               ; preds = %1, %3
  %4 = getelementptr inbounds nuw i8, ptr %0, i64 92
  %5 = load i32, ptr %4, align 4, !tbaa !28
  %6 = getelementptr inbounds nuw i8, ptr %0, i64 8
  %7 = load i32, ptr %6, align 8, !tbaa !62
  tail call void (ptr, ptr, ...) @strbuf_addf(ptr noundef nonnull @msgnum.sb, ptr noundef nonnull @.str.199, i32 noundef %5, i32 noundef %7) #21
  %8 = load ptr, ptr getelementptr inbounds nuw (i8, ptr @msgnum.sb, i64 16), align 8, !tbaa !51
  ret ptr %8
}